target datalayout = "e-m:e-p270:32:32-p271:32:32-p272:64:64-i64:64-i128:128-f80:128-n8:16:32:64-S128"
target triple = "x86_64-pc-linux-gnu"

%"class.ncnn::InverseSpectrogram" = type { %"class.ncnn::Layer", i32, i32, i32, i32, i32, i32, i32, %"class.ncnn::Mat" }
%"class.ncnn::Layer" = type { ptr, i8, i8, i8, i8, i8, i8, i8, i8, i8, i8, i8, i8, i8, i8, i8, i8, i8, i8, i8, i8, i32, ptr, i32, %"class.std::__cxx11::basic_string", %"class.std::__cxx11::basic_string", %"class.std::vector", %"class.std::vector", %"class.std::vector.3", %"class.std::vector.3" }
%"class.std::__cxx11::basic_string" = type { %"struct.std::__cxx11::basic_string<char>::_Alloc_hider", i64, %union.anon }
%"struct.std::__cxx11::basic_string<char>::_Alloc_hider" = type { ptr }
%union.anon = type { i64, [8 x i8] }
%"class.std::vector" = type { %"struct.std::_Vector_base" }
%"struct.std::_Vector_base" = type { %"struct.std::_Vector_base<int, std::allocator<int>>::_Vector_impl" }
%"struct.std::_Vector_base<int, std::allocator<int>>::_Vector_impl" = type { %"struct.std::_Vector_base<int, std::allocator<int>>::_Vector_impl_data" }
%"struct.std::_Vector_base<int, std::allocator<int>>::_Vector_impl_data" = type { ptr, ptr, ptr }
%"class.std::vector.3" = type { %"struct.std::_Vector_base.4" }
%"struct.std::_Vector_base.4" = type { %"struct.std::_Vector_base<ncnn::Mat, std::allocator<ncnn::Mat>>::_Vector_impl" }
%"struct.std::_Vector_base<ncnn::Mat, std::allocator<ncnn::Mat>>::_Vector_impl" = type { %"struct.std::_Vector_base<ncnn::Mat, std::allocator<ncnn::Mat>>::_Vector_impl_data" }
%"struct.std::_Vector_base<ncnn::Mat, std::allocator<ncnn::Mat>>::_Vector_impl_data" = type { ptr, ptr, ptr }
%"class.ncnn::Mat" = type { ptr, ptr, i64, i32, ptr, i32, i32, i32, i32, i32, i64 }

; Function Attrs: inlinehint mustprogress nounwind uwtable
define linkonce_odr noundef nofpclass(nan inf) float @_ZSt4sqrtf(float noundef nofpclass(nan inf) %0) #0 comdat {
  %2 = alloca float, align 4
  store float %0, ptr %2, align 4, !tbaa !43
  %3 = load float, ptr %2, align 4, !tbaa !43
  %4 = call fast float @llvm.sqrt.f32(float %3)
  ret float %4
}

; Function Attrs: alwaysinline mustprogress nounwind uwtable
define linkonce_odr hidden noundef nonnull align 4 dereferenceable(4) ptr @_ZN4ncnn3MatixEm(ptr noundef nonnull align 8 dereferenceable(72) %0, i64 noundef %1) #3 comdat align 2 {
  %3 = alloca ptr, align 8
  %4 = alloca i64, align 8
  store ptr %0, ptr %3, align 8, !tbaa !52
  store i64 %1, ptr %4, align 8, !tbaa !58
  %5 = load ptr, ptr %3, align 8
  %6 = getelementptr inbounds nuw %"class.ncnn::Mat", ptr %5, i32 0, i32 0
  %7 = load ptr, ptr %6, align 8, !tbaa !73
  %8 = load i64, ptr %4, align 8, !tbaa !58
  %9 = getelementptr inbounds nuw float, ptr %7, i64 %8
  ret ptr %9
}

; Function Attrs: alwaysinline mustprogress nounwind uwtable
define linkonce_odr hidden noundef ptr @_ZN4ncnn3MatcvPT_IfEEv(ptr noundef nonnull align 8 dereferenceable(72) %0) #3 comdat align 2 {
  %2 = alloca ptr, align 8
  store ptr %0, ptr %2, align 8, !tbaa !52
  %3 = load ptr, ptr %2, align 8
  %4 = getelementptr inbounds nuw %"class.ncnn::Mat", ptr %3, i32 0, i32 0
  %5 = load ptr, ptr %4, align 8, !tbaa !73
  ret ptr %5
}

; Function Attrs: mustprogress uwtable
define hidden noundef i32 @_ZN4ncnn18InverseSpectrogram10load_paramERKNS_9ParamDictE(ptr noundef nonnull align 8 dereferenceable(312) %0, ptr noundef nonnull align 8 dereferenceable(16) %1) unnamed_addr #1 align 2 {
  %3 = alloca ptr, align 8
  %4 = alloca ptr, align 8
  %5 = alloca ptr, align 8
  %6 = alloca i32, align 4
  %7 = alloca i32, align 4
  %8 = alloca i32, align 4
  %9 = alloca i32, align 4
  %10 = alloca i32, align 4
  %11 = alloca float, align 4
  %12 = alloca i32, align 4
  store ptr %0, ptr %3, align 8, !tbaa !4
  store ptr %1, ptr %4, align 8, !tbaa !11
  %13 = load ptr, ptr %3, align 8
  %14 = load ptr, ptr %4, align 8, !tbaa !11
  %15 = call noundef i32 @_ZNK4ncnn9ParamDict3getEii(ptr noundef nonnull align 8 dereferenceable(16) %14, i32 noundef 0, i32 noundef 0)
  %16 = getelementptr inbounds nuw %"class.ncnn::InverseSpectrogram", ptr %13, i32 0, i32 1
  store i32 %15, ptr %16, align 8, !tbaa !13
  %17 = load ptr, ptr %4, align 8, !tbaa !11
  %18 = call noundef i32 @_ZNK4ncnn9ParamDict3getEii(ptr noundef nonnull align 8 dereferenceable(16) %17, i32 noundef 1, i32 noundef 0)
  %19 = getelementptr inbounds nuw %"class.ncnn::InverseSpectrogram", ptr %13, i32 0, i32 2
  store i32 %18, ptr %19, align 4, !tbaa !34
  %20 = load ptr, ptr %4, align 8, !tbaa !11
  %21 = getelementptr inbounds nuw %"class.ncnn::InverseSpectrogram", ptr %13, i32 0, i32 1
  %22 = load i32, ptr %21, align 8, !tbaa !13
  %23 = sdiv i32 %22, 4
  %24 = call noundef i32 @_ZNK4ncnn9ParamDict3getEii(ptr noundef nonnull align 8 dereferenceable(16) %20, i32 noundef 2, i32 noundef %23)
  %25 = getelementptr inbounds nuw %"class.ncnn::InverseSpectrogram", ptr %13, i32 0, i32 3
  store i32 %24, ptr %25, align 8, !tbaa !35
  %26 = load ptr, ptr %4, align 8, !tbaa !11
  %27 = getelementptr inbounds nuw %"class.ncnn::InverseSpectrogram", ptr %13, i32 0, i32 1
  %28 = load i32, ptr %27, align 8, !tbaa !13
  %29 = call noundef i32 @_ZNK4ncnn9ParamDict3getEii(ptr noundef nonnull align 8 dereferenceable(16) %26, i32 noundef 3, i32 noundef %28)
  %30 = getelementptr inbounds nuw %"class.ncnn::InverseSpectrogram", ptr %13, i32 0, i32 4
  store i32 %29, ptr %30, align 4, !tbaa !36
  %31 = load ptr, ptr %4, align 8, !tbaa !11
  %32 = call noundef i32 @_ZNK4ncnn9ParamDict3getEii(ptr noundef nonnull align 8 dereferenceable(16) %31, i32 noundef 4, i32 noundef 0)
  %33 = getelementptr inbounds nuw %"class.ncnn::InverseSpectrogram", ptr %13, i32 0, i32 5
  store i32 %32, ptr %33, align 8, !tbaa !37
  %34 = load ptr, ptr %4, align 8, !tbaa !11
  %35 = call noundef i32 @_ZNK4ncnn9ParamDict3getEii(ptr noundef nonnull align 8 dereferenceable(16) %34, i32 noundef 5, i32 noundef 1)
  %36 = getelementptr inbounds nuw %"class.ncnn::InverseSpectrogram", ptr %13, i32 0, i32 6
  store i32 %35, ptr %36, align 4, !tbaa !38
  %37 = load ptr, ptr %4, align 8, !tbaa !11
  %38 = call noundef i32 @_ZNK4ncnn9ParamDict3getEii(ptr noundef nonnull align 8 dereferenceable(16) %37, i32 noundef 7, i32 noundef 0)
  %39 = getelementptr inbounds nuw %"class.ncnn::InverseSpectrogram", ptr %13, i32 0, i32 7
  store i32 %38, ptr %39, align 8, !tbaa !39
  %40 = getelementptr inbounds nuw %"class.ncnn::InverseSpectrogram", ptr %13, i32 0, i32 8
  %41 = getelementptr inbounds nuw %"class.ncnn::InverseSpectrogram", ptr %13, i32 0, i32 7
  %42 = load i32, ptr %41, align 8, !tbaa !39
  %43 = icmp eq i32 %42, 2
  br i1 %43, label %44, label %48

44:                                               ; preds = %2
  %45 = getelementptr inbounds nuw %"class.ncnn::InverseSpectrogram", ptr %13, i32 0, i32 1
  %46 = load i32, ptr %45, align 8, !tbaa !13
  %47 = add nsw i32 %46, 1
  br label %51

48:                                               ; preds = %2
  %49 = getelementptr inbounds nuw %"class.ncnn::InverseSpectrogram", ptr %13, i32 0, i32 1
  %50 = load i32, ptr %49, align 8, !tbaa !13
  br label %51

51:                                               ; preds = %48, %44
  %52 = phi i32 [ %47, %44 ], [ %50, %48 ]
  call void @_ZN4ncnn3Mat6createEimPNS_9AllocatorE(ptr noundef nonnull align 8 dereferenceable(72) %40, i32 noundef %52, i64 noundef 4, ptr noundef null)
  call void @llvm.lifetime.start.p0(i64 8, ptr %5) #9
  %53 = getelementptr inbounds nuw %"class.ncnn::InverseSpectrogram", ptr %13, i32 0, i32 8
  %54 = call noundef ptr @_ZN4ncnn3MatcvPT_IfEEv(ptr noundef nonnull align 8 dereferenceable(72) %53)
  store ptr %54, ptr %5, align 8, !tbaa !40
  call void @llvm.lifetime.start.p0(i64 4, ptr %6) #9
  store i32 0, ptr %6, align 4, !tbaa !42
  br label %55

55:                                               ; preds = %68, %51
  %56 = load i32, ptr %6, align 4, !tbaa !42
  %57 = getelementptr inbounds nuw %"class.ncnn::InverseSpectrogram", ptr %13, i32 0, i32 1
  %58 = load i32, ptr %57, align 8, !tbaa !13
  %59 = getelementptr inbounds nuw %"class.ncnn::InverseSpectrogram", ptr %13, i32 0, i32 4
  %60 = load i32, ptr %59, align 4, !tbaa !36
  %61 = sub nsw i32 %58, %60
  %62 = sdiv i32 %61, 2
  %63 = icmp slt i32 %56, %62
  br i1 %63, label %65, label %64

64:                                               ; preds = %55
  call void @llvm.lifetime.end.p0(i64 4, ptr %6) #9
  br label %71

65:                                               ; preds = %55
  %66 = load ptr, ptr %5, align 8, !tbaa !40
  %67 = getelementptr inbounds nuw float, ptr %66, i32 1
  store ptr %67, ptr %5, align 8, !tbaa !40
  store float 0.000000e+00, ptr %66, align 4, !tbaa !43
  br label %68

68:                                               ; preds = %65
  %69 = load i32, ptr %6, align 4, !tbaa !42
  %70 = add nsw i32 %69, 1
  store i32 %70, ptr %6, align 4, !tbaa !42
  br label %55, !llvm.loop !45

71:                                               ; preds = %64
  %72 = getelementptr inbounds nuw %"class.ncnn::InverseSpectrogram", ptr %13, i32 0, i32 5
  %73 = load i32, ptr %72, align 8, !tbaa !37
  %74 = icmp eq i32 %73, 0
  br i1 %74, label %75, label %89

75:                                               ; preds = %71
  call void @llvm.lifetime.start.p0(i64 4, ptr %7) #9
  store i32 0, ptr %7, align 4, !tbaa !42
  br label %76

76:                                               ; preds = %85, %75
  %77 = load i32, ptr %7, align 4, !tbaa !42
  %78 = getelementptr inbounds nuw %"class.ncnn::InverseSpectrogram", ptr %13, i32 0, i32 4
  %79 = load i32, ptr %78, align 4, !tbaa !36
  %80 = icmp slt i32 %77, %79
  br i1 %80, label %82, label %81

81:                                               ; preds = %76
  call void @llvm.lifetime.end.p0(i64 4, ptr %7) #9
  br label %88

82:                                               ; preds = %76
  %83 = load ptr, ptr %5, align 8, !tbaa !40
  %84 = getelementptr inbounds nuw float, ptr %83, i32 1
  store ptr %84, ptr %5, align 8, !tbaa !40
  store float 1.000000e+00, ptr %83, align 4, !tbaa !43
  br label %85

85:                                               ; preds = %82
  %86 = load i32, ptr %7, align 4, !tbaa !42
  %87 = add nsw i32 %86, 1
  store i32 %87, ptr %7, align 4, !tbaa !42
  br label %76, !llvm.loop !47

88:                                               ; preds = %81
  br label %89

89:                                               ; preds = %88, %71
  %90 = getelementptr inbounds nuw %"class.ncnn::InverseSpectrogram", ptr %13, i32 0, i32 5
  %91 = load i32, ptr %90, align 8, !tbaa !37
  %92 = icmp eq i32 %91, 1
  br i1 %92, label %93, label %118

93:                                               ; preds = %89
  call void @llvm.lifetime.start.p0(i64 4, ptr %8) #9
  store i32 0, ptr %8, align 4, !tbaa !42
  br label %94

94:                                               ; preds = %114, %93
  %95 = load i32, ptr %8, align 4, !tbaa !42
  %96 = getelementptr inbounds nuw %"class.ncnn::InverseSpectrogram", ptr %13, i32 0, i32 4
  %97 = load i32, ptr %96, align 4, !tbaa !36
  %98 = icmp slt i32 %95, %97
  br i1 %98, label %100, label %99

99:                                               ; preds = %94
  call void @llvm.lifetime.end.p0(i64 4, ptr %8) #9
  br label %117

100:                                              ; preds = %94
  %101 = load i32, ptr %8, align 4, !tbaa !42
  %102 = sitofp i32 %101 to double
  %103 = fmul fast double 0x401921FB54442D18, %102
  %104 = getelementptr inbounds nuw %"class.ncnn::InverseSpectrogram", ptr %13, i32 0, i32 4
  %105 = load i32, ptr %104, align 4, !tbaa !36
  %106 = sitofp i32 %105 to double
  %107 = fdiv fast double %103, %106
  %108 = fptrunc fast double %107 to float
  %109 = call fast float @llvm.cos.f32(float %108)
  %110 = fsub fast float 1.000000e+00, %109
  %111 = fmul fast float 5.000000e-01, %110
  %112 = load ptr, ptr %5, align 8, !tbaa !40
  %113 = getelementptr inbounds nuw float, ptr %112, i32 1
  store ptr %113, ptr %5, align 8, !tbaa !40
  store float %111, ptr %112, align 4, !tbaa !43
  br label %114

114:                                              ; preds = %100
  %115 = load i32, ptr %8, align 4, !tbaa !42
  %116 = add nsw i32 %115, 1
  store i32 %116, ptr %8, align 4, !tbaa !42
  br label %94, !llvm.loop !48

117:                                              ; preds = %99
  br label %118

118:                                              ; preds = %117, %89
  %119 = getelementptr inbounds nuw %"class.ncnn::InverseSpectrogram", ptr %13, i32 0, i32 5
  %120 = load i32, ptr %119, align 8, !tbaa !37
  %121 = icmp eq i32 %120, 2
  br i1 %121, label %122, label %147

122:                                              ; preds = %118
  call void @llvm.lifetime.start.p0(i64 4, ptr %9) #9
  store i32 0, ptr %9, align 4, !tbaa !42
  br label %123

123:                                              ; preds = %143, %122
  %124 = load i32, ptr %9, align 4, !tbaa !42
  %125 = getelementptr inbounds nuw %"class.ncnn::InverseSpectrogram", ptr %13, i32 0, i32 4
  %126 = load i32, ptr %125, align 4, !tbaa !36
  %127 = icmp slt i32 %124, %126
  br i1 %127, label %129, label %128

128:                                              ; preds = %123
  call void @llvm.lifetime.end.p0(i64 4, ptr %9) #9
  br label %146

129:                                              ; preds = %123
  %130 = load i32, ptr %9, align 4, !tbaa !42
  %131 = sitofp i32 %130 to double
  %132 = fmul fast double 0x401921FB54442D18, %131
  %133 = getelementptr inbounds nuw %"class.ncnn::InverseSpectrogram", ptr %13, i32 0, i32 4
  %134 = load i32, ptr %133, align 4, !tbaa !36
  %135 = sitofp i32 %134 to double
  %136 = fdiv fast double %132, %135
  %137 = fptrunc fast double %136 to float
  %138 = call fast float @llvm.cos.f32(float %137)
  %139 = fmul fast float 0x3FDD70A3E0000000, %138
  %140 = fsub fast float 0x3FE147AE20000000, %139
  %141 = load ptr, ptr %5, align 8, !tbaa !40
  %142 = getelementptr inbounds nuw float, ptr %141, i32 1
  store ptr %142, ptr %5, align 8, !tbaa !40
  store float %140, ptr %141, align 4, !tbaa !43
  br label %143

143:                                              ; preds = %129
  %144 = load i32, ptr %9, align 4, !tbaa !42
  %145 = add nsw i32 %144, 1
  store i32 %145, ptr %9, align 4, !tbaa !42
  br label %123, !llvm.loop !49

146:                                              ; preds = %128
  br label %147

147:                                              ; preds = %146, %118
  call void @llvm.lifetime.start.p0(i64 4, ptr %10) #9
  store i32 0, ptr %10, align 4, !tbaa !42
  br label %148

148:                                              ; preds = %167, %147
  %149 = load i32, ptr %10, align 4, !tbaa !42
  %150 = getelementptr inbounds nuw %"class.ncnn::InverseSpectrogram", ptr %13, i32 0, i32 1
  %151 = load i32, ptr %150, align 8, !tbaa !13
  %152 = getelementptr inbounds nuw %"class.ncnn::InverseSpectrogram", ptr %13, i32 0, i32 4
  %153 = load i32, ptr %152, align 4, !tbaa !36
  %154 = sub nsw i32 %151, %153
  %155 = getelementptr inbounds nuw %"class.ncnn::InverseSpectrogram", ptr %13, i32 0, i32 1
  %156 = load i32, ptr %155, align 8, !tbaa !13
  %157 = getelementptr inbounds nuw %"class.ncnn::InverseSpectrogram", ptr %13, i32 0, i32 4
  %158 = load i32, ptr %157, align 4, !tbaa !36
  %159 = sub nsw i32 %156, %158
  %160 = sdiv i32 %159, 2
  %161 = sub nsw i32 %154, %160
  %162 = icmp slt i32 %149, %161
  br i1 %162, label %164, label %163

163:                                              ; preds = %148
  call void @llvm.lifetime.end.p0(i64 4, ptr %10) #9
  br label %170

164:                                              ; preds = %148
  %165 = load ptr, ptr %5, align 8, !tbaa !40
  %166 = getelementptr inbounds nuw float, ptr %165, i32 1
  store ptr %166, ptr %5, align 8, !tbaa !40
  store float 0.000000e+00, ptr %165, align 4, !tbaa !43
  br label %167

167:                                              ; preds = %164
  %168 = load i32, ptr %10, align 4, !tbaa !42
  %169 = add nsw i32 %168, 1
  store i32 %169, ptr %10, align 4, !tbaa !42
  br label %148, !llvm.loop !50

170:                                              ; preds = %163
  %171 = getelementptr inbounds nuw %"class.ncnn::InverseSpectrogram", ptr %13, i32 0, i32 7
  %172 = load i32, ptr %171, align 8, !tbaa !39
  %173 = icmp eq i32 %172, 2
  br i1 %173, label %174, label %206

174:                                              ; preds = %170
  call void @llvm.lifetime.start.p0(i64 4, ptr %11) #9
  store float 0.000000e+00, ptr %11, align 4, !tbaa !43
  call void @llvm.lifetime.start.p0(i64 4, ptr %12) #9
  store i32 0, ptr %12, align 4, !tbaa !42
  br label %175

175:                                              ; preds = %195, %174
  %176 = load i32, ptr %12, align 4, !tbaa !42
  %177 = getelementptr inbounds nuw %"class.ncnn::InverseSpectrogram", ptr %13, i32 0, i32 1
  %178 = load i32, ptr %177, align 8, !tbaa !13
  %179 = icmp slt i32 %176, %178
  br i1 %179, label %181, label %180

180:                                              ; preds = %175
  call void @llvm.lifetime.end.p0(i64 4, ptr %12) #9
  br label %198

181:                                              ; preds = %175
  %182 = getelementptr inbounds nuw %"class.ncnn::InverseSpectrogram", ptr %13, i32 0, i32 8
  %183 = load i32, ptr %12, align 4, !tbaa !42
  %184 = sext i32 %183 to i64
  %185 = call noundef nonnull align 4 dereferenceable(4) ptr @_ZN4ncnn3MatixEm(ptr noundef nonnull align 8 dereferenceable(72) %182, i64 noundef %184)
  %186 = load float, ptr %185, align 4, !tbaa !43
  %187 = getelementptr inbounds nuw %"class.ncnn::InverseSpectrogram", ptr %13, i32 0, i32 8
  %188 = load i32, ptr %12, align 4, !tbaa !42
  %189 = sext i32 %188 to i64
  %190 = call noundef nonnull align 4 dereferenceable(4) ptr @_ZN4ncnn3MatixEm(ptr noundef nonnull align 8 dereferenceable(72) %187, i64 noundef %189)
  %191 = load float, ptr %190, align 4, !tbaa !43
  %192 = fmul fast float %186, %191
  %193 = load float, ptr %11, align 4, !tbaa !43
  %194 = fadd fast float %193, %192
  store float %194, ptr %11, align 4, !tbaa !43
  br label %195

195:                                              ; preds = %181
  %196 = load i32, ptr %12, align 4, !tbaa !42
  %197 = add nsw i32 %196, 1
  store i32 %197, ptr %12, align 4, !tbaa !42
  br label %175, !llvm.loop !51

198:                                              ; preds = %180
  %199 = load float, ptr %11, align 4, !tbaa !43
  %200 = call fast noundef nofpclass(nan inf) float @_ZSt4sqrtf(float noundef nofpclass(nan inf) %199)
  %201 = getelementptr inbounds nuw %"class.ncnn::InverseSpectrogram", ptr %13, i32 0, i32 8
  %202 = getelementptr inbounds nuw %"class.ncnn::InverseSpectrogram", ptr %13, i32 0, i32 1
  %203 = load i32, ptr %202, align 8, !tbaa !13
  %204 = sext i32 %203 to i64
  %205 = call noundef nonnull align 4 dereferenceable(4) ptr @_ZN4ncnn3MatixEm(ptr noundef nonnull align 8 dereferenceable(72) %201, i64 noundef %204)
  store float %200, ptr %205, align 4, !tbaa !43
  call void @llvm.lifetime.end.p0(i64 4, ptr %11) #9
  br label %206

206:                                              ; preds = %198, %170
  call void @llvm.lifetime.end.p0(i64 8, ptr %5) #9
  ret i32 0
}