; Function Attrs: mustprogress uwtable
define hidden noundef i32 @_ZN4ncnn18InverseSpectrogram10load_paramERKNS_9ParamDictE(ptr noundef nonnull align 8 dereferenceable(312) initializes((208, 236)) %0, ptr noundef nonnull align 8 dereferenceable(16) %1) unnamed_addr #1 align 2 {
  %3 = tail call noundef i32 @_ZNK4ncnn9ParamDict3getEii(ptr noundef nonnull align 8 dereferenceable(16) %1, i32 noundef 0, i32 noundef 0)
  %4 = getelementptr inbounds nuw i8, ptr %0, i64 208
  store i32 %3, ptr %4, align 8, !tbaa !18
  %5 = tail call noundef i32 @_ZNK4ncnn9ParamDict3getEii(ptr noundef nonnull align 8 dereferenceable(16) %1, i32 noundef 1, i32 noundef 0)
  %6 = getelementptr inbounds nuw i8, ptr %0, i64 212
  store i32 %5, ptr %6, align 4, !tbaa !34
  %7 = load i32, ptr %4, align 8, !tbaa !18
  %8 = sdiv i32 %7, 4
  %9 = tail call noundef i32 @_ZNK4ncnn9ParamDict3getEii(ptr noundef nonnull align 8 dereferenceable(16) %1, i32 noundef 2, i32 noundef %8)
  %10 = getelementptr inbounds nuw i8, ptr %0, i64 216
  store i32 %9, ptr %10, align 8, !tbaa !35
  %11 = load i32, ptr %4, align 8, !tbaa !18
  %12 = tail call noundef i32 @_ZNK4ncnn9ParamDict3getEii(ptr noundef nonnull align 8 dereferenceable(16) %1, i32 noundef 3, i32 noundef %11)
  %13 = getelementptr inbounds nuw i8, ptr %0, i64 220
  store i32 %12, ptr %13, align 4, !tbaa !36
  %14 = tail call noundef i32 @_ZNK4ncnn9ParamDict3getEii(ptr noundef nonnull align 8 dereferenceable(16) %1, i32 noundef 4, i32 noundef 0)
  %15 = getelementptr inbounds nuw i8, ptr %0, i64 224
  store i32 %14, ptr %15, align 8, !tbaa !37
  %16 = tail call noundef i32 @_ZNK4ncnn9ParamDict3getEii(ptr noundef nonnull align 8 dereferenceable(16) %1, i32 noundef 5, i32 noundef 1)
  %17 = getelementptr inbounds nuw i8, ptr %0, i64 228
  store i32 %16, ptr %17, align 4, !tbaa !38
  %18 = tail call noundef i32 @_ZNK4ncnn9ParamDict3getEii(ptr noundef nonnull align 8 dereferenceable(16) %1, i32 noundef 7, i32 noundef 0)
  %19 = getelementptr inbounds nuw i8, ptr %0, i64 232
  store i32 %18, ptr %19, align 8, !tbaa !39
  %20 = getelementptr inbounds nuw i8, ptr %0, i64 240
  %21 = icmp eq i32 %18, 2
  %22 = load i32, ptr %4, align 8
  %23 = zext i1 %21 to i32
  %24 = add nsw i32 %22, %23
  tail call void @_ZN4ncnn3Mat6createEimPNS_9AllocatorE(ptr noundef nonnull align 8 dereferenceable(72) %20, i32 noundef %24, i64 noundef 4, ptr noundef null)
  %25 = load ptr, ptr %20, align 8, !tbaa !16
  %26 = load i32, ptr %4, align 8, !tbaa !18
  %27 = load i32, ptr %13, align 4, !tbaa !36
  %28 = sub nsw i32 %26, %27
  %29 = icmp sgt i32 %28, 1
  br i1 %29, label %.lr.ph.preheader, label %._crit_edge

.lr.ph.preheader:                                 ; preds = %2
  %30 = lshr i32 %28, 1
  %31 = add nsw i32 %30, -1
  %32 = zext nneg i32 %31 to i64
  %33 = shl nuw nsw i64 %32, 2
  %34 = add nuw nsw i64 %33, 4
  tail call void @llvm.memset.p0.i64(ptr noundef nonnull align 4 dereferenceable(1) %25, i8 0, i64 %34, i1 false), !tbaa !40
  %scevgep = getelementptr i8, ptr %25, i64 %34
  br label %._crit_edge

._crit_edge:                                      ; preds = %.lr.ph.preheader, %2
  %.036.lcssa = phi ptr [ %25, %2 ], [ %scevgep, %.lr.ph.preheader ]
  %35 = load i32, ptr %15, align 8, !tbaa !37
  %36 = icmp eq i32 %35, 0
  %37 = icmp sgt i32 %27, 0
  %or.cond = and i1 %36, %37
  br i1 %or.cond, label %.lr.ph53, label %.loopexit43

.lr.ph53:                                         ; preds = %._crit_edge, %.lr.ph53
  %.03452 = phi i32 [ %39, %.lr.ph53 ], [ 0, %._crit_edge ]
  %.251 = phi ptr [ %38, %.lr.ph53 ], [ %.036.lcssa, %._crit_edge ]
  %38 = getelementptr inbounds nuw i8, ptr %.251, i64 4
  store float 1.000000e+00, ptr %.251, align 4, !tbaa !40
  %39 = add nuw nsw i32 %.03452, 1
  %exitcond.not = icmp eq i32 %39, %27
  br i1 %exitcond.not, label %.loopexit, label %.lr.ph53, !llvm.loop !42

.loopexit43:                                      ; preds = %._crit_edge
  %40 = icmp eq i32 %35, 1
  %or.cond73 = and i1 %40, %37
  br i1 %or.cond73, label %.lr.ph57, label %.loopexit41

.lr.ph57:                                         ; preds = %.loopexit43
  %41 = uitofp nneg i32 %27 to double
  %42 = fdiv fast double 1.000000e+00, %41
  br label %43

43:                                               ; preds = %.lr.ph57, %43
  %.03356 = phi i32 [ 0, %.lr.ph57 ], [ %52, %43 ]
  %.455 = phi ptr [ %.036.lcssa, %.lr.ph57 ], [ %51, %43 ]
  %44 = uitofp nneg i32 %.03356 to double
  %45 = fmul fast double %44, 0x401921FB54442D18
  %46 = fmul fast double %45, %42
  %47 = fptrunc fast double %46 to float
  %48 = tail call fast float @llvm.cos.f32(float %47)
  %49 = fmul fast float %48, 5.000000e-01
  %50 = fsub fast float 5.000000e-01, %49
  %51 = getelementptr inbounds nuw i8, ptr %.455, i64 4
  store float %50, ptr %.455, align 4, !tbaa !40
  %52 = add nuw nsw i32 %.03356, 1
  %exitcond79.not = icmp eq i32 %52, %27
  br i1 %exitcond79.not, label %.loopexit, label %43, !llvm.loop !44

.loopexit41:                                      ; preds = %.loopexit43
  %53 = icmp eq i32 %35, 2
  %or.cond74 = and i1 %53, %37
  br i1 %or.cond74, label %.lr.ph61, label %.loopexit

.lr.ph61:                                         ; preds = %.loopexit41
  %54 = uitofp nneg i32 %27 to double
  %55 = fdiv fast double 1.000000e+00, %54
  br label %56

56:                                               ; preds = %.lr.ph61, %56
  %.03260 = phi i32 [ 0, %.lr.ph61 ], [ %65, %56 ]
  %.659 = phi ptr [ %.036.lcssa, %.lr.ph61 ], [ %64, %56 ]
  %57 = uitofp nneg i32 %.03260 to double
  %58 = fmul fast double %57, 0x401921FB54442D18
  %59 = fmul fast double %58, %55
  %60 = fptrunc fast double %59 to float
  %61 = tail call fast float @llvm.cos.f32(float %60)
  %62 = fmul fast float %61, 0x3FDD70A3E0000000
  %63 = fsub fast float 0x3FE147AE20000000, %62
  %64 = getelementptr inbounds nuw i8, ptr %.659, i64 4
  store float %63, ptr %.659, align 4, !tbaa !40
  %65 = add nuw nsw i32 %.03260, 1
  %exitcond80.not = icmp eq i32 %65, %27
  br i1 %exitcond80.not, label %.loopexit, label %56, !llvm.loop !45

.loopexit:                                        ; preds = %56, %43, %.lr.ph53, %.loopexit41
  %.5 = phi ptr [ %.036.lcssa, %.loopexit41 ], [ %38, %.lr.ph53 ], [ %51, %43 ], [ %64, %56 ]
  %.neg = sdiv i32 %28, -2
  %66 = add i32 %.neg, %28
  %67 = icmp sgt i32 %66, 0
  br i1 %67, label %.lr.ph66.preheader, label %._crit_edge67

.lr.ph66.preheader:                               ; preds = %.loopexit
  %68 = zext nneg i32 %66 to i64
  %69 = shl nuw nsw i64 %68, 2
  tail call void @llvm.memset.p0.i64(ptr align 4 %.5, i8 0, i64 %69, i1 false), !tbaa !40
  br label %._crit_edge67

._crit_edge67:                                    ; preds = %.lr.ph66.preheader, %.loopexit
  %70 = load i32, ptr %19, align 8, !tbaa !39
  %71 = icmp eq i32 %70, 2
  br i1 %71, label %.preheader, label %80

.preheader:                                       ; preds = %._crit_edge67
  %72 = icmp sgt i32 %26, 0
  br i1 %72, label %.lr.ph70.preheader, label %._crit_edge71

.lr.ph70.preheader:                               ; preds = %.preheader
  %wide.trip.count = zext nneg i32 %26 to i64
  br label %.lr.ph70

._crit_edge71:                                    ; preds = %.lr.ph70, %.preheader
  %.030.lcssa = phi float [ 0.000000e+00, %.preheader ], [ %79, %.lr.ph70 ]
  %73 = tail call fast noundef float @llvm.sqrt.f32(float %.030.lcssa)
  %74 = sext i32 %26 to i64
  %75 = getelementptr inbounds nuw float, ptr %25, i64 %74
  store float %73, ptr %75, align 4, !tbaa !40
  br label %80

.lr.ph70:                                         ; preds = %.lr.ph70.preheader, %.lr.ph70
  %indvars.iv = phi i64 [ 0, %.lr.ph70.preheader ], [ %indvars.iv.next, %.lr.ph70 ]
  %.03068 = phi float [ 0.000000e+00, %.lr.ph70.preheader ], [ %79, %.lr.ph70 ]
  %76 = getelementptr inbounds nuw float, ptr %25, i64 %indvars.iv
  %77 = load float, ptr %76, align 4, !tbaa !40
  %78 = fmul fast float %77, %77
  %79 = fadd fast float %78, %.03068
  %indvars.iv.next = add nuw nsw i64 %indvars.iv, 1
  %exitcond82.not = icmp eq i64 %indvars.iv.next, %wide.trip.count
  br i1 %exitcond82.not, label %._crit_edge71, label %.lr.ph70, !llvm.loop !46

80:                                               ; preds = %._crit_edge71, %._crit_edge67
  ret i32 0
}